ccopy_reg
_reconstructor
p0
(csklearn.linear_model.base
LinearRegression
p1
c__builtin__
object
p2
Ntp3
Rp4
(dp5
S'normalize'
p6
I00
sS'n_jobs'
p7
I1
sS'rank_'
p8
I4
sS'fit_intercept'
p9
I01
sS'_residues'
p10
cnumpy.core.multiarray
scalar
p11
(cnumpy
dtype
p12
(S'f8'
p13
I0
I1
tp14
Rp15
(I3
S'<'
p16
NNNI-1
I-1
I0
tp17
bS'\xd4\xa6P\xc0\x99\xe4EA'
p18
tp19
Rp20
sS'singular_'
p21
cnumpy.core.multiarray
_reconstruct
p22
(cnumpy
ndarray
p23
(I0
tp24
S'b'
p25
tp26
Rp27
(I1
(I4
tp28
g15
I00
S'U\x13\xfb\x82w\xb7Q@\x8d\xde\xc3\x07\xd6\x11M@\xee4d\xe1\x86\xd7@@\x1f\x1b\xdac\x91\xc66@'
p29
tp30
bsS'coef_'
p31
g22
(g23
(I0
tp32
g25
tp33
Rp34
(I1
(I4
tp35
g15
I00
S'\x82J3\x8c\xf6\x8eh@\xd8\xcf\xc7\xca\xee\xc0\xee\xbfud\t2\x1d!\xe0\xbf\xfc\xe9G\x93B\x9e\x0c\xc0'
p36
tp37
bsS'_sklearn_version'
p38
S'0.18.1'
p39
sS'copy_X'
p40
I01
sS'intercept_'
p41
g11
(g15
S'\x93\xf9\xc9\xa0^\xd7v@'
p42
tp43
Rp44
sb.